target datalayout = "e-m:e-p270:32:32-p271:32:32-p272:64:64-i64:64-i128:128-f80:128-n8:16:32:64-S128"
target triple = "x86_64-pc-linux-gnu"

%"class.cv::Point_" = type { i32, i32 }
%"class.cv::tracking::impl::tld::TLDEnsembleClassifier" = type <{ %"class.std::vector", %"class.std::vector.0", %"class.std::vector", i32, [4 x i8] }>
%"class.std::vector.0" = type { %"struct.std::_Vector_base.1" }
%"struct.std::_Vector_base.1" = type { %"struct.std::_Vector_base<cv::Vec<unsigned char, 4>, std::allocator<cv::Vec<unsigned char, 4>>>::_Vector_impl" }
%"struct.std::_Vector_base<cv::Vec<unsigned char, 4>, std::allocator<cv::Vec<unsigned char, 4>>>::_Vector_impl" = type { %"struct.std::_Vector_base<cv::Vec<unsigned char, 4>, std::allocator<cv::Vec<unsigned char, 4>>>::_Vector_impl_data" }
%"struct.std::_Vector_base<cv::Vec<unsigned char, 4>, std::allocator<cv::Vec<unsigned char, 4>>>::_Vector_impl_data" = type { ptr, ptr, ptr }
%"class.std::vector" = type { %"struct.std::_Vector_base" }
%"struct.std::_Vector_base" = type { %"struct.std::_Vector_base<cv::Point_<int>, std::allocator<cv::Point_<int>>>::_Vector_impl" }
%"struct.std::_Vector_base<cv::Point_<int>, std::allocator<cv::Point_<int>>>::_Vector_impl" = type { %"struct.std::_Vector_base<cv::Point_<int>, std::allocator<cv::Point_<int>>>::_Vector_impl_data" }
%"struct.std::_Vector_base<cv::Point_<int>, std::allocator<cv::Point_<int>>>::_Vector_impl_data" = type { ptr, ptr, ptr }
%"class.cv::Vec" = type { %"class.cv::Matx" }
%"class.cv::Matx" = type { [4 x i8] }

; Function Attrs: mustprogress nounwind uwtable
define linkonce_odr hidden noundef nonnull align 4 dereferenceable(8) ptr @_ZNSt6vectorIN2cv6Point_IiEESaIS2_EEixEm(ptr noundef nonnull align 8 dereferenceable(24) %0, i64 noundef %1) #5 comdat align 2 {
  %3 = alloca ptr, align 8
  %4 = alloca i64, align 8
  store ptr %0, ptr %3, align 8, !tbaa !26
  store i64 %1, ptr %4, align 8, !tbaa !28
  %5 = load ptr, ptr %3, align 8
  %6 = getelementptr inbounds nuw %"struct.std::_Vector_base", ptr %5, i32 0, i32 0
  %7 = getelementptr inbounds nuw %"struct.std::_Vector_base<cv::Point_<int>, std::allocator<cv::Point_<int>>>::_Vector_impl_data", ptr %6, i32 0, i32 0
  %8 = load ptr, ptr %7, align 8, !tbaa !40
  %9 = load i64, ptr %4, align 8, !tbaa !28
  %10 = getelementptr inbounds nuw %"class.cv::Point_", ptr %8, i64 %9
  ret ptr %10
}

; Function Attrs: mustprogress nounwind uwtable
define linkonce_odr hidden noundef nonnull align 1 dereferenceable(4) ptr @_ZNSt6vectorIN2cv3VecIhLi4EEESaIS2_EEixEm(ptr noundef nonnull align 8 dereferenceable(24) %0, i64 noundef %1) #5 comdat align 2 {
  %3 = alloca ptr, align 8
  %4 = alloca i64, align 8
  store ptr %0, ptr %3, align 8, !tbaa !8
  store i64 %1, ptr %4, align 8, !tbaa !28
  %5 = load ptr, ptr %3, align 8
  %6 = getelementptr inbounds nuw %"struct.std::_Vector_base.1", ptr %5, i32 0, i32 0
  %7 = getelementptr inbounds nuw %"struct.std::_Vector_base<cv::Vec<unsigned char, 4>, std::allocator<cv::Vec<unsigned char, 4>>>::_Vector_impl_data", ptr %6, i32 0, i32 0
  %8 = load ptr, ptr %7, align 8, !tbaa !42
  %9 = load i64, ptr %4, align 8, !tbaa !28
  %10 = getelementptr inbounds nuw %"class.cv::Vec", ptr %8, i64 %9
  ret ptr %10
}

; Function Attrs: mustprogress nounwind uwtable
define linkonce_odr hidden noundef i64 @_ZNKSt6vectorIN2cv6Point_IiEESaIS2_EE4sizeEv(ptr noundef nonnull align 8 dereferenceable(24) %0) #5 comdat align 2 {
  %2 = alloca ptr, align 8
  store ptr %0, ptr %2, align 8, !tbaa !26
  %3 = load ptr, ptr %2, align 8
  %4 = getelementptr inbounds nuw %"struct.std::_Vector_base", ptr %3, i32 0, i32 0
  %5 = getelementptr inbounds nuw %"struct.std::_Vector_base<cv::Point_<int>, std::allocator<cv::Point_<int>>>::_Vector_impl_data", ptr %4, i32 0, i32 1
  %6 = load ptr, ptr %5, align 8, !tbaa !41
  %7 = getelementptr inbounds nuw %"struct.std::_Vector_base", ptr %3, i32 0, i32 0
  %8 = getelementptr inbounds nuw %"struct.std::_Vector_base<cv::Point_<int>, std::allocator<cv::Point_<int>>>::_Vector_impl_data", ptr %7, i32 0, i32 0
  %9 = load ptr, ptr %8, align 8, !tbaa !40
  %10 = ptrtoint ptr %6 to i64
  %11 = ptrtoint ptr %9 to i64
  %12 = sub i64 %10, %11
  %13 = sdiv exact i64 %12, 8
  ret i64 %13
}

; Function Attrs: mustprogress nounwind uwtable
define hidden void @_ZN2cv8tracking4impl3tld21TLDEnsembleClassifier17prepareClassifierEi(ptr noundef nonnull align 8 dereferenceable(76) %0, i32 noundef %1) #5 align 2 {
  %3 = alloca ptr, align 8
  %4 = alloca i32, align 4
  %5 = alloca i32, align 4
  store ptr %0, ptr %3, align 8, !tbaa !3
  store i32 %1, ptr %4, align 4, !tbaa !10
  %6 = load ptr, ptr %3, align 8
  %7 = getelementptr inbounds nuw %"class.cv::tracking::impl::tld::TLDEnsembleClassifier", ptr %6, i32 0, i32 3
  %8 = load i32, ptr %7, align 8, !tbaa !12
  %9 = load i32, ptr %4, align 4, !tbaa !10
  %10 = icmp ne i32 %8, %9
  br i1 %10, label %11, label %74

11:                                               ; preds = %2
  %12 = load i32, ptr %4, align 4, !tbaa !10
  %13 = getelementptr inbounds nuw %"class.cv::tracking::impl::tld::TLDEnsembleClassifier", ptr %6, i32 0, i32 3
  store i32 %12, ptr %13, align 8, !tbaa !12
  call void @llvm.lifetime.start.p0(i64 4, ptr %5) #3
  store i32 0, ptr %5, align 4, !tbaa !10
  br label %14

14:                                               ; preds = %70, %11
  %15 = load i32, ptr %5, align 4, !tbaa !10
  %16 = getelementptr inbounds nuw %"class.cv::tracking::impl::tld::TLDEnsembleClassifier", ptr %6, i32 0, i32 2
  %17 = call noundef i64 @_ZNKSt6vectorIN2cv6Point_IiEESaIS2_EE4sizeEv(ptr noundef nonnull align 8 dereferenceable(24) %16) #3
  %18 = trunc i64 %17 to i32
  %19 = icmp slt i32 %15, %18
  br i1 %19, label %21, label %20

20:                                               ; preds = %14
  call void @llvm.lifetime.end.p0(i64 4, ptr %5) #3
  br label %73

21:                                               ; preds = %14
  %22 = load i32, ptr %4, align 4, !tbaa !10
  %23 = getelementptr inbounds nuw %"class.cv::tracking::impl::tld::TLDEnsembleClassifier", ptr %6, i32 0, i32 1
  %24 = load i32, ptr %5, align 4, !tbaa !10
  %25 = sext i32 %24 to i64
  %26 = call noundef nonnull align 1 dereferenceable(4) ptr @_ZNSt6vectorIN2cv3VecIhLi4EEESaIS2_EEixEm(ptr noundef nonnull align 8 dereferenceable(24) %23, i64 noundef %25) #3
  %27 = getelementptr inbounds nuw %"class.cv::Matx", ptr %26, i32 0, i32 0
  %28 = getelementptr inbounds [4 x i8], ptr %27, i64 0, i64 2
  %29 = load i8, ptr %28, align 1, !tbaa !44
  %30 = zext i8 %29 to i32
  %31 = mul nsw i32 %22, %30
  %32 = getelementptr inbounds nuw %"class.cv::tracking::impl::tld::TLDEnsembleClassifier", ptr %6, i32 0, i32 1
  %33 = load i32, ptr %5, align 4, !tbaa !10
  %34 = sext i32 %33 to i64
  %35 = call noundef nonnull align 1 dereferenceable(4) ptr @_ZNSt6vectorIN2cv3VecIhLi4EEESaIS2_EEixEm(ptr noundef nonnull align 8 dereferenceable(24) %32, i64 noundef %34) #3
  %36 = getelementptr inbounds nuw %"class.cv::Matx", ptr %35, i32 0, i32 0
  %37 = getelementptr inbounds [4 x i8], ptr %36, i64 0, i64 0
  %38 = load i8, ptr %37, align 1, !tbaa !44
  %39 = zext i8 %38 to i32
  %40 = add nsw i32 %31, %39
  %41 = getelementptr inbounds nuw %"class.cv::tracking::impl::tld::TLDEnsembleClassifier", ptr %6, i32 0, i32 2
  %42 = load i32, ptr %5, align 4, !tbaa !10
  %43 = sext i32 %42 to i64
  %44 = call noundef nonnull align 4 dereferenceable(8) ptr @_ZNSt6vectorIN2cv6Point_IiEESaIS2_EEixEm(ptr noundef nonnull align 8 dereferenceable(24) %41, i64 noundef %43) #3
  %45 = getelementptr inbounds nuw %"class.cv::Point_", ptr %44, i32 0, i32 0
  store i32 %40, ptr %45, align 4, !tbaa !31
  %46 = load i32, ptr %4, align 4, !tbaa !10
  %47 = getelementptr inbounds nuw %"class.cv::tracking::impl::tld::TLDEnsembleClassifier", ptr %6, i32 0, i32 1
  %48 = load i32, ptr %5, align 4, !tbaa !10
  %49 = sext i32 %48 to i64
  %50 = call noundef nonnull align 1 dereferenceable(4) ptr @_ZNSt6vectorIN2cv3VecIhLi4EEESaIS2_EEixEm(ptr noundef nonnull align 8 dereferenceable(24) %47, i64 noundef %49) #3
  %51 = getelementptr inbounds nuw %"class.cv::Matx", ptr %50, i32 0, i32 0
  %52 = getelementptr inbounds [4 x i8], ptr %51, i64 0, i64 3
  %53 = load i8, ptr %52, align 1, !tbaa !44
  %54 = zext i8 %53 to i32
  %55 = mul nsw i32 %46, %54
  %56 = getelementptr inbounds nuw %"class.cv::tracking::impl::tld::TLDEnsembleClassifier", ptr %6, i32 0, i32 1
  %57 = load i32, ptr %5, align 4, !tbaa !10
  %58 = sext i32 %57 to i64
  %59 = call noundef nonnull align 1 dereferenceable(4) ptr @_ZNSt6vectorIN2cv3VecIhLi4EEESaIS2_EEixEm(ptr noundef nonnull align 8 dereferenceable(24) %56, i64 noundef %58) #3
  %60 = getelementptr inbounds nuw %"class.cv::Matx", ptr %59, i32 0, i32 0
  %61 = getelementptr inbounds [4 x i8], ptr %60, i64 0, i64 1
  %62 = load i8, ptr %61, align 1, !tbaa !44
  %63 = zext i8 %62 to i32
  %64 = add nsw i32 %55, %63
  %65 = getelementptr inbounds nuw %"class.cv::tracking::impl::tld::TLDEnsembleClassifier", ptr %6, i32 0, i32 2
  %66 = load i32, ptr %5, align 4, !tbaa !10
  %67 = sext i32 %66 to i64
  %68 = call noundef nonnull align 4 dereferenceable(8) ptr @_ZNSt6vectorIN2cv6Point_IiEESaIS2_EEixEm(ptr noundef nonnull align 8 dereferenceable(24) %65, i64 noundef %67) #3
  %69 = getelementptr inbounds nuw %"class.cv::Point_", ptr %68, i32 0, i32 1
  store i32 %64, ptr %69, align 4, !tbaa !33
  br label %70

70:                                               ; preds = %21
  %71 = load i32, ptr %5, align 4, !tbaa !10
  %72 = add nsw i32 %71, 1
  store i32 %72, ptr %5, align 4, !tbaa !10
  br label %14, !llvm.loop !46

73:                                               ; preds = %20
  br label %74

74:                                               ; preds = %73, %2
  ret void
}