; Function Attrs: mustprogress nofree norecurse nosync nounwind memory(readwrite, inaccessiblemem: none) uwtable
define hidden void @_ZN2cv8tracking4impl3tld21TLDEnsembleClassifier17prepareClassifierEi(ptr noundef nonnull align 8 captures(none) dereferenceable(76) %0, i32 noundef %1) local_unnamed_addr #5 align 2 {
  %3 = getelementptr inbounds nuw i8, ptr %0, i64 72
  %4 = load i32, ptr %3, align 8, !tbaa !3
  %.not = icmp eq i32 %4, %1
  br i1 %.not, label %.loopexit, label %5

5:                                                ; preds = %2
  store i32 %1, ptr %3, align 8, !tbaa !3
  %6 = getelementptr inbounds nuw i8, ptr %0, i64 48
  %7 = getelementptr inbounds nuw i8, ptr %0, i64 56
  %8 = load ptr, ptr %7, align 8, !tbaa !30
  %9 = load ptr, ptr %6, align 8, !tbaa !25
  %10 = ptrtoint ptr %8 to i64
  %11 = ptrtoint ptr %9 to i64
  %12 = sub i64 %10, %11
  %13 = lshr exact i64 %12, 3
  %14 = trunc i64 %13 to i32
  %15 = icmp sgt i32 %14, 0
  br i1 %15, label %.lr.ph, label %.loopexit

.lr.ph:                                           ; preds = %5
  %16 = getelementptr inbounds nuw i8, ptr %0, i64 24
  %17 = load ptr, ptr %16, align 8, !tbaa !26
  %wide.trip.count = and i64 %13, 2147483647
  br label %18

18:                                               ; preds = %.lr.ph, %18
  %indvars.iv = phi i64 [ 0, %.lr.ph ], [ %indvars.iv.next, %18 ]
  %19 = getelementptr inbounds nuw %"class.cv::Vec", ptr %17, i64 %indvars.iv
  %20 = getelementptr inbounds nuw i8, ptr %19, i64 2
  %21 = load i8, ptr %20, align 1, !tbaa !28
  %22 = zext i8 %21 to i32
  %23 = mul nsw i32 %1, %22
  %24 = load i8, ptr %19, align 1, !tbaa !28
  %25 = zext i8 %24 to i32
  %26 = add nsw i32 %23, %25
  %27 = getelementptr inbounds nuw %"class.cv::Point_", ptr %9, i64 %indvars.iv
  store i32 %26, ptr %27, align 4, !tbaa !19
  %28 = getelementptr inbounds nuw i8, ptr %19, i64 3
  %29 = load i8, ptr %28, align 1, !tbaa !28
  %30 = zext i8 %29 to i32
  %31 = mul nsw i32 %1, %30
  %32 = getelementptr inbounds nuw i8, ptr %19, i64 1
  %33 = load i8, ptr %32, align 1, !tbaa !28
  %34 = zext i8 %33 to i32
  %35 = add nsw i32 %31, %34
  %36 = getelementptr inbounds nuw i8, ptr %27, i64 4
  store i32 %35, ptr %36, align 4, !tbaa !21
  %indvars.iv.next = add nuw nsw i64 %indvars.iv, 1
  %exitcond.not = icmp eq i64 %indvars.iv.next, %wide.trip.count
  br i1 %exitcond.not, label %.loopexit, label %18, !llvm.loop !31

.loopexit:                                        ; preds = %18, %5, %2
  ret void
}